; Function Attrs: mustprogress nounwind uwtable
define hidden noundef ptr @_ZNK14PhaseIdealLoop12compute_idomEP4Node(ptr nocapture noundef nonnull readonly align 8 dereferenceable(237) %0, ptr nocapture noundef readonly %1) local_unnamed_addr #0 align 2 {
  %3 = getelementptr inbounds i8, ptr %1, i64 24
  %4 = load i32, ptr %3, align 8
  %5 = icmp ugt i32 %4, 1
  br i1 %5, label %.lr.ph, label %._crit_edge

.lr.ph:                                           ; preds = %2
  %6 = getelementptr inbounds i8, ptr %1, i64 8
  %7 = getelementptr inbounds i8, ptr %0, i64 16
  br label %8

8:                                                ; preds = %.lr.ph, %_ZNK14PhaseIdealLoop7dom_lcaEP4NodeS1_.exit
  %indvars.iv = phi i64 [ 1, %.lr.ph ], [ %indvars.iv.next, %_ZNK14PhaseIdealLoop7dom_lcaEP4NodeS1_.exit ]
  %.0910 = phi ptr [ null, %.lr.ph ], [ %.1, %_ZNK14PhaseIdealLoop7dom_lcaEP4NodeS1_.exit ]
  %9 = load ptr, ptr %6, align 8
  %10 = getelementptr inbounds ptr, ptr %9, i64 %indvars.iv
  %11 = load ptr, ptr %10, align 8
  %12 = load ptr, ptr %7, align 8
  %13 = getelementptr inbounds i8, ptr %12, i64 744
  %14 = load ptr, ptr %13, align 8
  %.not = icmp eq ptr %11, %14
  br i1 %.not, label %_ZNK14PhaseIdealLoop7dom_lcaEP4NodeS1_.exit, label %15

15:                                               ; preds = %8
  %16 = tail call noundef ptr @_ZNK14PhaseIdealLoop16dom_lca_internalEP4NodeS1_(ptr noundef nonnull align 8 dereferenceable(237) %0, ptr noundef %.0910, ptr noundef %11)
  %.not.i.i = icmp eq ptr %16, null
  br i1 %.not.i.i, label %_ZNK14PhaseIdealLoop7dom_lcaEP4NodeS1_.exit, label %17

17:                                               ; preds = %15
  %18 = getelementptr inbounds i8, ptr %16, i64 44
  %19 = load i32, ptr %18, align 4
  %20 = and i32 %19, 7
  %21 = icmp eq i32 %20, 5
  br i1 %21, label %22, label %_ZNK14PhaseIdealLoop7dom_lcaEP4NodeS1_.exit

22:                                               ; preds = %17
  %23 = getelementptr inbounds i8, ptr %16, i64 8
  %24 = load ptr, ptr %23, align 8
  %25 = load ptr, ptr %24, align 8
  br label %_ZNK14PhaseIdealLoop7dom_lcaEP4NodeS1_.exit

_ZNK14PhaseIdealLoop7dom_lcaEP4NodeS1_.exit:      ; preds = %22, %17, %15, %8
  %.1 = phi ptr [ %.0910, %8 ], [ %25, %22 ], [ %16, %17 ], [ null, %15 ]
  %indvars.iv.next = add nuw nsw i64 %indvars.iv, 1
  %26 = load i32, ptr %3, align 8
  %27 = zext i32 %26 to i64
  %28 = icmp ult i64 %indvars.iv.next, %27
  br i1 %28, label %8, label %._crit_edge, !llvm.loop !121

._crit_edge:                                      ; preds = %_ZNK14PhaseIdealLoop7dom_lcaEP4NodeS1_.exit, %2
  %.09.lcssa = phi ptr [ null, %2 ], [ %.1, %_ZNK14PhaseIdealLoop7dom_lcaEP4NodeS1_.exit ]
  ret ptr %.09.lcssa
}